; Function Attrs: mustprogress uwtable
define internal fastcc void @_ZN19OpenColorIO_v2_4dev12_GLOBAL__N_119GetParametersStringB5cxx11ERKSt6vectorIdSaIdEE(ptr noalias align 8 %agg.result, ptr nocapture noundef nonnull readonly align 8 dereferenceable(24) %params) unnamed_addr #3 personality ptr @__gxx_personality_v0 {
entry:
  %oss = alloca %"class.std::__cxx11::basic_ostringstream", align 8
  call void @_ZNSt7__cxx1119basic_ostringstreamIcSt11char_traitsIcESaIcEEC1Ev(ptr noundef nonnull align 8 dereferenceable(112) %oss)
  %vtable = load ptr, ptr %oss, align 8
  %vbase.offset.ptr = getelementptr i8, ptr %vtable, i64 -24
  %vbase.offset = load i64, ptr %vbase.offset.ptr, align 8
  %add.ptr = getelementptr inbounds i8, ptr %oss, i64 %vbase.offset
  %_M_precision.i = getelementptr inbounds i8, ptr %add.ptr, i64 8
  store i64 7, ptr %_M_precision.i, align 8
  %0 = load ptr, ptr %params, align 8
  %1 = load double, ptr %0, align 8
  %call3 = invoke noundef nonnull align 8 dereferenceable(8) ptr @_ZNSolsEd(ptr noundef nonnull align 8 dereferenceable(8) %oss, double noundef %1)
          to label %for.cond.preheader unwind label %lpad.loopexit.split-lp

for.cond.preheader:                               ; preds = %entry
  %_M_finish.i = getelementptr inbounds i8, ptr %params, i64 8
  %2 = load ptr, ptr %_M_finish.i, align 8
  %3 = load ptr, ptr %params, align 8
  %sub.ptr.lhs.cast.i7 = ptrtoint ptr %2 to i64
  %sub.ptr.rhs.cast.i8 = ptrtoint ptr %3 to i64
  %sub.ptr.sub.i9 = sub i64 %sub.ptr.lhs.cast.i7, %sub.ptr.rhs.cast.i8
  %cmp11 = icmp ugt i64 %sub.ptr.sub.i9, 8
  br i1 %cmp11, label %for.body, label %for.end

for.body:                                         ; preds = %for.cond.preheader, %for.inc
  %idx.012 = phi i64 [ %inc, %for.inc ], [ 1, %for.cond.preheader ]
  %call6 = invoke noundef nonnull align 8 dereferenceable(8) ptr @_ZStlsISt11char_traitsIcEERSt13basic_ostreamIcT_ES5_PKc(ptr noundef nonnull align 8 dereferenceable(8) %oss, ptr noundef nonnull @.str.18)
          to label %invoke.cont5 unwind label %lpad.loopexit

invoke.cont5:                                     ; preds = %for.body
  %4 = load ptr, ptr %params, align 8
  %add.ptr.i = getelementptr inbounds double, ptr %4, i64 %idx.012
  %5 = load double, ptr %add.ptr.i, align 8
  %call9 = invoke noundef nonnull align 8 dereferenceable(8) ptr @_ZNSolsEd(ptr noundef nonnull align 8 dereferenceable(8) %call6, double noundef %5)
          to label %for.inc unwind label %lpad.loopexit

for.inc:                                          ; preds = %invoke.cont5
  %inc = add nuw i64 %idx.012, 1
  %6 = load ptr, ptr %_M_finish.i, align 8
  %7 = load ptr, ptr %params, align 8
  %sub.ptr.lhs.cast.i = ptrtoint ptr %6 to i64
  %sub.ptr.rhs.cast.i = ptrtoint ptr %7 to i64
  %sub.ptr.sub.i = sub i64 %sub.ptr.lhs.cast.i, %sub.ptr.rhs.cast.i
  %sub.ptr.div.i = ashr exact i64 %sub.ptr.sub.i, 3
  %cmp = icmp ult i64 %inc, %sub.ptr.div.i
  br i1 %cmp, label %for.body, label %for.end, !llvm.loop !41

lpad.loopexit:                                    ; preds = %for.body, %invoke.cont5
  %lpad.loopexit5 = landingpad { ptr, i32 }
          cleanup
  br label %lpad

lpad.loopexit.split-lp:                           ; preds = %entry, %for.end
  %lpad.loopexit.split-lp6 = landingpad { ptr, i32 }
          cleanup
  br label %lpad

lpad:                                             ; preds = %lpad.loopexit.split-lp, %lpad.loopexit
  %lpad.phi = phi { ptr, i32 } [ %lpad.loopexit5, %lpad.loopexit ], [ %lpad.loopexit.split-lp6, %lpad.loopexit.split-lp ]
  call void @_ZNSt7__cxx1119basic_ostringstreamIcSt11char_traitsIcESaIcEED1Ev(ptr noundef nonnull align 8 dereferenceable(112) %oss) #18
  resume { ptr, i32 } %lpad.phi

for.end:                                          ; preds = %for.inc, %for.cond.preheader
  invoke void @_ZNKSt7__cxx1119basic_ostringstreamIcSt11char_traitsIcESaIcEE3strEv(ptr sret(%"class.std::__cxx11::basic_string") align 8 %agg.result, ptr noundef nonnull align 8 dereferenceable(112) %oss)
          to label %invoke.cont10 unwind label %lpad.loopexit.split-lp

invoke.cont10:                                    ; preds = %for.end
  call void @_ZNSt7__cxx1119basic_ostringstreamIcSt11char_traitsIcESaIcEED1Ev(ptr noundef nonnull align 8 dereferenceable(112) %oss) #18
  ret void
}